; Function Attrs: mustprogress uwtable
define void @_ZNK8LightGBM4GBDT13EvalOneMetricEPKNS_6MetricEPKdi(ptr dead_on_unwind noalias writable sret(%"class.std::vector") align 8 %0, ptr noundef nonnull readonly align 8 captures(none) dereferenceable(648) %1, ptr noundef %2, ptr noundef %3, i32 %4) unnamed_addr #1 align 2 {
  %6 = getelementptr inbounds nuw i8, ptr %1, i64 40
  %7 = load ptr, ptr %6, align 8, !tbaa !198
  %8 = load ptr, ptr %2, align 8, !tbaa !193
  %9 = getelementptr inbounds nuw i8, ptr %8, i64 40
  %10 = load ptr, ptr %9, align 8
  tail call void %10(ptr dead_on_unwind writable sret(%"class.std::vector") align 8 %0, ptr noundef nonnull align 8 dereferenceable(8) %2, ptr noundef %3, ptr noundef %7)
  ret void
}